; Function Attrs: null_pointer_is_valid sspstrong uwtable
define internal i32 @dissect_ulp_T_ganssTimeModels(ptr noundef %0, i32 noundef %1, ptr noundef %2, ptr noundef %3, i32 noundef %4) #0 {
  %6 = alloca ptr, align 8
  call void @llvm.lifetime.start.p0(i64 8, ptr nonnull %6) #8
  %7 = call i32 @dissect_per_bit_string(ptr noundef %0, i32 noundef %1, ptr noundef %2, ptr noundef %3, i32 noundef %4, i32 noundef 16, i32 noundef 16, i1 noundef zeroext false, ptr noundef null, i32 noundef 0, ptr noundef nonnull %6, ptr noundef null)
  %8 = load ptr, ptr %6, align 8
  %.not = icmp eq ptr %8, null
  br i1 %.not, label %32, label %9

9:                                                ; preds = %5
  %10 = getelementptr inbounds nuw i8, ptr %2, i64 24
  %11 = load ptr, ptr %10, align 8
  %12 = load i32, ptr @ett_ulp_ganssTimeModels, align 4
  %13 = call ptr @proto_item_add_subtree(ptr noundef %11, i32 noundef %12)
  %14 = load i32, ptr @hf_ulp_ganssTimeModels_bit0, align 4
  %15 = load ptr, ptr %6, align 8
  %16 = call ptr @proto_tree_add_item(ptr noundef %13, i32 noundef %14, ptr noundef %15, i32 noundef 0, i32 noundef 2, i32 noundef 0)
  %17 = load i32, ptr @hf_ulp_ganssTimeModels_bit1, align 4
  %18 = load ptr, ptr %6, align 8
  %19 = call ptr @proto_tree_add_item(ptr noundef %13, i32 noundef %17, ptr noundef %18, i32 noundef 0, i32 noundef 2, i32 noundef 0)
  %20 = load i32, ptr @hf_ulp_ganssTimeModels_bit2, align 4
  %21 = load ptr, ptr %6, align 8
  %22 = call ptr @proto_tree_add_item(ptr noundef %13, i32 noundef %20, ptr noundef %21, i32 noundef 0, i32 noundef 2, i32 noundef 0)
  %23 = load i32, ptr @hf_ulp_ganssTimeModels_bit3, align 4
  %24 = load ptr, ptr %6, align 8
  %25 = call ptr @proto_tree_add_item(ptr noundef %13, i32 noundef %23, ptr noundef %24, i32 noundef 0, i32 noundef 2, i32 noundef 0)
  %26 = load i32, ptr @hf_ulp_ganssTimeModels_bit4, align 4
  %27 = load ptr, ptr %6, align 8
  %28 = call ptr @proto_tree_add_item(ptr noundef %13, i32 noundef %26, ptr noundef %27, i32 noundef 0, i32 noundef 2, i32 noundef 0)
  %29 = load i32, ptr @hf_ulp_ganssTimeModels_spare, align 4
  %30 = load ptr, ptr %6, align 8
  %31 = call ptr @proto_tree_add_item(ptr noundef %13, i32 noundef %29, ptr noundef %30, i32 noundef 0, i32 noundef 2, i32 noundef 0)
  br label %32

32:                                               ; preds = %9, %5
  call void @llvm.lifetime.end.p0(i64 8, ptr nonnull %6) #8
  ret i32 %7
}